target datalayout = "e-m:e-p270:32:32-p271:32:32-p272:64:64-i64:64-i128:128-f80:128-n8:16:32:64-S128"
target triple = "x86_64-pc-linux-gnu"

%struct.mpa = type { i32 }

@.str.223 = private unnamed_addr constant [4 x i8] c"TAG\00", align 1
@.str.224 = private unnamed_addr constant [4 x i8] c"ID3\00", align 1

; Function Attrs: null_pointer_is_valid sspstrong uwtable
define internal zeroext i1 @test_mpeg_audio(ptr noundef %0, i32 noundef %1) #0 {
  %3 = alloca i1, align 1
  %4 = alloca ptr, align 8
  %5 = alloca i32, align 4
  %6 = alloca i32, align 4
  %7 = alloca %struct.mpa, align 4
  %8 = alloca i32, align 4
  store ptr %0, ptr %4, align 8
  store i32 %1, ptr %5, align 4
  call void @llvm.lifetime.start.p0(i64 4, ptr %6) #3
  call void @llvm.lifetime.start.p0(i64 4, ptr %7) #3
  %9 = load ptr, ptr %4, align 8
  %10 = load i32, ptr %5, align 4
  %11 = call zeroext i1 @tvb_bytes_exist(ptr noundef %9, i32 noundef %10, i32 noundef 4)
  br i1 %11, label %13, label %12

12:                                               ; preds = %2
  store i1 false, ptr %3, align 1
  store i32 1, ptr %8, align 4
  br label %152

13:                                               ; preds = %2
  %14 = load ptr, ptr %4, align 8
  %15 = load i32, ptr %5, align 4
  %16 = call i32 @tvb_strneql(ptr noundef %14, i32 noundef %15, ptr noundef @.str.223, i64 noundef 3)
  %17 = icmp eq i32 %16, 0
  br i1 %17, label %18, label %19

18:                                               ; preds = %13
  store i1 true, ptr %3, align 1
  store i32 1, ptr %8, align 4
  br label %152

19:                                               ; preds = %13
  %20 = load ptr, ptr %4, align 8
  %21 = load i32, ptr %5, align 4
  %22 = call i32 @tvb_strneql(ptr noundef %20, i32 noundef %21, ptr noundef @.str.224, i64 noundef 3)
  %23 = icmp eq i32 %22, 0
  br i1 %23, label %24, label %25

24:                                               ; preds = %19
  store i1 true, ptr %3, align 1
  store i32 1, ptr %8, align 4
  br label %152

25:                                               ; preds = %19
  %26 = load ptr, ptr %4, align 8
  %27 = load i32, ptr %5, align 4
  %28 = call i32 @tvb_get_uint32(ptr noundef %26, i32 noundef %27, i32 noundef 0)
  store i32 %28, ptr %6, align 4
  br label %29

29:                                               ; preds = %25
  %30 = load i32, ptr %6, align 4
  %31 = lshr i32 %30, 21
  %32 = and i32 %31, 2047
  %33 = load i32, ptr %7, align 4
  %34 = and i32 %32, 2047
  %35 = shl i32 %34, 21
  %36 = and i32 %33, 2097151
  %37 = or i32 %36, %35
  store i32 %37, ptr %7, align 4
  %38 = load i32, ptr %6, align 4
  %39 = lshr i32 %38, 19
  %40 = and i32 %39, 3
  %41 = load i32, ptr %7, align 4
  %42 = and i32 %40, 3
  %43 = shl i32 %42, 19
  %44 = and i32 %41, -1572865
  %45 = or i32 %44, %43
  store i32 %45, ptr %7, align 4
  %46 = load i32, ptr %6, align 4
  %47 = lshr i32 %46, 17
  %48 = and i32 %47, 3
  %49 = load i32, ptr %7, align 4
  %50 = and i32 %48, 3
  %51 = shl i32 %50, 17
  %52 = and i32 %49, -393217
  %53 = or i32 %52, %51
  store i32 %53, ptr %7, align 4
  %54 = load i32, ptr %6, align 4
  %55 = lshr i32 %54, 16
  %56 = and i32 %55, 1
  %57 = load i32, ptr %7, align 4
  %58 = and i32 %56, 1
  %59 = shl i32 %58, 16
  %60 = and i32 %57, -65537
  %61 = or i32 %60, %59
  store i32 %61, ptr %7, align 4
  %62 = load i32, ptr %6, align 4
  %63 = lshr i32 %62, 12
  %64 = and i32 %63, 15
  %65 = load i32, ptr %7, align 4
  %66 = and i32 %64, 15
  %67 = shl i32 %66, 12
  %68 = and i32 %65, -61441
  %69 = or i32 %68, %67
  store i32 %69, ptr %7, align 4
  %70 = load i32, ptr %6, align 4
  %71 = lshr i32 %70, 10
  %72 = and i32 %71, 3
  %73 = load i32, ptr %7, align 4
  %74 = and i32 %72, 3
  %75 = shl i32 %74, 10
  %76 = and i32 %73, -3073
  %77 = or i32 %76, %75
  store i32 %77, ptr %7, align 4
  %78 = load i32, ptr %6, align 4
  %79 = lshr i32 %78, 9
  %80 = and i32 %79, 1
  %81 = load i32, ptr %7, align 4
  %82 = and i32 %80, 1
  %83 = shl i32 %82, 9
  %84 = and i32 %81, -513
  %85 = or i32 %84, %83
  store i32 %85, ptr %7, align 4
  %86 = load i32, ptr %6, align 4
  %87 = lshr i32 %86, 8
  %88 = and i32 %87, 1
  %89 = load i32, ptr %7, align 4
  %90 = and i32 %88, 1
  %91 = shl i32 %90, 8
  %92 = and i32 %89, -257
  %93 = or i32 %92, %91
  store i32 %93, ptr %7, align 4
  %94 = load i32, ptr %6, align 4
  %95 = lshr i32 %94, 6
  %96 = and i32 %95, 3
  %97 = load i32, ptr %7, align 4
  %98 = and i32 %96, 3
  %99 = shl i32 %98, 6
  %100 = and i32 %97, -193
  %101 = or i32 %100, %99
  store i32 %101, ptr %7, align 4
  %102 = load i32, ptr %6, align 4
  %103 = lshr i32 %102, 4
  %104 = and i32 %103, 3
  %105 = load i32, ptr %7, align 4
  %106 = and i32 %104, 3
  %107 = shl i32 %106, 4
  %108 = and i32 %105, -49
  %109 = or i32 %108, %107
  store i32 %109, ptr %7, align 4
  %110 = load i32, ptr %6, align 4
  %111 = lshr i32 %110, 3
  %112 = and i32 %111, 1
  %113 = load i32, ptr %7, align 4
  %114 = and i32 %112, 1
  %115 = shl i32 %114, 3
  %116 = and i32 %113, -9
  %117 = or i32 %116, %115
  store i32 %117, ptr %7, align 4
  %118 = load i32, ptr %6, align 4
  %119 = lshr i32 %118, 2
  %120 = and i32 %119, 1
  %121 = load i32, ptr %7, align 4
  %122 = and i32 %120, 1
  %123 = shl i32 %122, 2
  %124 = and i32 %121, -5
  %125 = or i32 %124, %123
  store i32 %125, ptr %7, align 4
  %126 = load i32, ptr %6, align 4
  %127 = lshr i32 %126, 0
  %128 = and i32 %127, 3
  %129 = load i32, ptr %7, align 4
  %130 = and i32 %128, 3
  %131 = and i32 %129, -4
  %132 = or i32 %131, %130
  store i32 %132, ptr %7, align 4
  br label %133

133:                                              ; preds = %29
  br label %134

134:                                              ; preds = %133
  %135 = load i32, ptr %7, align 4
  %136 = lshr i32 %135, 21
  %137 = icmp eq i32 %136, 2047
  br i1 %137, label %138, label %150

138:                                              ; preds = %134
  %139 = call i32 @mpa_version(ptr noundef %7)
  %140 = icmp sge i32 %139, 0
  br i1 %140, label %141, label %150

141:                                              ; preds = %138
  %142 = call i32 @mpa_layer(ptr noundef %7)
  %143 = icmp sge i32 %142, 0
  br i1 %143, label %144, label %150

144:                                              ; preds = %141
  %145 = call i32 @mpa_bitrate(ptr noundef %7)
  %146 = icmp ugt i32 %145, 0
  br i1 %146, label %147, label %150

147:                                              ; preds = %144
  %148 = call i32 @mpa_frequency(ptr noundef %7)
  %149 = icmp ugt i32 %148, 0
  br label %150

150:                                              ; preds = %147, %144, %141, %138, %134
  %151 = phi i1 [ false, %144 ], [ false, %141 ], [ false, %138 ], [ false, %134 ], [ %149, %147 ]
  store i1 %151, ptr %3, align 1
  store i32 1, ptr %8, align 4
  br label %152

152:                                              ; preds = %150, %24, %18, %12
  call void @llvm.lifetime.end.p0(i64 4, ptr %7) #3
  call void @llvm.lifetime.end.p0(i64 4, ptr %6) #3
  %153 = load i1, ptr %3, align 1
  ret i1 %153
}

; Function Attrs: null_pointer_is_valid sspstrong uwtable
define internal zeroext i1 @dissect_mpeg_audio_heur(ptr noundef %0, ptr noundef %1, ptr noundef %2, ptr noundef %3) #0 {
  %5 = alloca i1, align 1
  %6 = alloca ptr, align 8
  %7 = alloca ptr, align 8
  %8 = alloca ptr, align 8
  %9 = alloca ptr, align 8
  store ptr %0, ptr %6, align 8
  store ptr %1, ptr %7, align 8
  store ptr %2, ptr %8, align 8
  store ptr %3, ptr %9, align 8
  %10 = load ptr, ptr %6, align 8
  %11 = call zeroext i1 @test_mpeg_audio(ptr noundef %10, i32 noundef 0)
  br i1 %11, label %13, label %12

12:                                               ; preds = %4
  store i1 false, ptr %5, align 1
  br label %19

13:                                               ; preds = %4
  %14 = load ptr, ptr %6, align 8
  %15 = load ptr, ptr %7, align 8
  %16 = load ptr, ptr %8, align 8
  %17 = load ptr, ptr %9, align 8
  %18 = call i32 @dissect_mpeg_audio(ptr noundef %14, ptr noundef %15, ptr noundef %16, ptr noundef %17)
  store i1 true, ptr %5, align 1
  br label %19

19:                                               ; preds = %13, %12
  %20 = load i1, ptr %5, align 1
  ret i1 %20
}