; Function Attrs: null_pointer_is_valid sspstrong uwtable
define internal noundef zeroext i1 @dissect_mpeg_audio_heur(ptr noundef %0, ptr noundef %1, ptr noundef %2, ptr readnone captures(none) %3) #0 {
  %5 = alloca %struct.mpa, align 4
  call void @llvm.lifetime.start.p0(i64 4, ptr nonnull %5) #3
  %6 = tail call zeroext i1 @tvb_bytes_exist(ptr noundef %0, i32 noundef 0, i32 noundef 4)
  br i1 %6, label %7, label %test_mpeg_audio.exit.thread

7:                                                ; preds = %4
  %8 = tail call i32 @tvb_strneql(ptr noundef %0, i32 noundef 0, ptr noundef nonnull @.str.223, i64 noundef 3)
  %9 = icmp eq i32 %8, 0
  br i1 %9, label %test_mpeg_audio.exit.thread9, label %10

10:                                               ; preds = %7
  %11 = tail call i32 @tvb_strneql(ptr noundef %0, i32 noundef 0, ptr noundef nonnull @.str.224, i64 noundef 3)
  %12 = icmp eq i32 %11, 0
  br i1 %12, label %test_mpeg_audio.exit.thread9, label %13

13:                                               ; preds = %10
  %14 = tail call i32 @tvb_get_uint32(ptr noundef %0, i32 noundef 0, i32 noundef 0)
  store i32 %14, ptr %5, align 4
  %15 = icmp ugt i32 %14, -2097153
  br i1 %15, label %16, label %test_mpeg_audio.exit.thread

16:                                               ; preds = %13
  %17 = call i32 @mpa_version(ptr noundef nonnull %5)
  %18 = icmp sgt i32 %17, -1
  br i1 %18, label %19, label %test_mpeg_audio.exit.thread

19:                                               ; preds = %16
  %20 = call i32 @mpa_layer(ptr noundef nonnull %5)
  %21 = icmp sgt i32 %20, -1
  br i1 %21, label %22, label %test_mpeg_audio.exit.thread

22:                                               ; preds = %19
  %23 = call i32 @mpa_bitrate(ptr noundef nonnull %5)
  %.not.i = icmp eq i32 %23, 0
  br i1 %.not.i, label %test_mpeg_audio.exit.thread, label %test_mpeg_audio.exit

test_mpeg_audio.exit.thread:                      ; preds = %4, %22, %19, %16, %13
  call void @llvm.lifetime.end.p0(i64 4, ptr nonnull %5) #3
  br label %27

test_mpeg_audio.exit.thread9:                     ; preds = %7, %10
  call void @llvm.lifetime.end.p0(i64 4, ptr nonnull %5) #3
  br label %25

test_mpeg_audio.exit:                             ; preds = %22
  %24 = call i32 @mpa_frequency(ptr noundef nonnull %5)
  %.not = icmp eq i32 %24, 0
  call void @llvm.lifetime.end.p0(i64 4, ptr nonnull %5) #3
  br i1 %.not, label %27, label %25

25:                                               ; preds = %test_mpeg_audio.exit.thread9, %test_mpeg_audio.exit
  %26 = call i32 @dissect_mpeg_audio(ptr noundef %0, ptr noundef %1, ptr noundef %2, ptr poison)
  br label %27

27:                                               ; preds = %test_mpeg_audio.exit.thread, %test_mpeg_audio.exit, %25
  %.0.i7 = phi i1 [ false, %test_mpeg_audio.exit.thread ], [ false, %test_mpeg_audio.exit ], [ true, %25 ]
  ret i1 %.0.i7
}